target datalayout = "e-m:e-p270:32:32-p271:32:32-p272:64:64-i64:64-i128:128-f80:128-n8:16:32:64-S128"
target triple = "x86_64-pc-linux-gnu"

; Function Attrs: nounwind uwtable
define dso_local i32 @verifyClusterNodeId(ptr noundef %0, i32 noundef %1) #0 {
  %3 = alloca i32, align 4
  %4 = alloca ptr, align 8
  %5 = alloca i32, align 4
  %6 = alloca i32, align 4
  %7 = alloca i32, align 4
  store ptr %0, ptr %4, align 8, !tbaa !5
  store i32 %1, ptr %5, align 4, !tbaa !10
  %8 = load i32, ptr %5, align 4, !tbaa !10
  %9 = icmp ne i32 %8, 40
  br i1 %9, label %10, label %11

10:                                               ; preds = %2
  store i32 -1, ptr %3, align 4
  br label %58

11:                                               ; preds = %2
  call void @llvm.lifetime.start.p0(i64 4, ptr %6) #14
  store i32 0, ptr %6, align 4, !tbaa !10
  br label %12

12:                                               ; preds = %52, %11
  %13 = load i32, ptr %6, align 4, !tbaa !10
  %14 = load i32, ptr %5, align 4, !tbaa !10
  %15 = icmp slt i32 %13, %14
  br i1 %15, label %17, label %16

16:                                               ; preds = %12
  store i32 2, ptr %7, align 4
  br label %55

17:                                               ; preds = %12
  %18 = load ptr, ptr %4, align 8, !tbaa !5
  %19 = load i32, ptr %6, align 4, !tbaa !10
  %20 = sext i32 %19 to i64
  %21 = getelementptr inbounds i8, ptr %18, i64 %20
  %22 = load i8, ptr %21, align 1, !tbaa !12
  %23 = sext i8 %22 to i32
  %24 = icmp sge i32 %23, 97
  br i1 %24, label %25, label %34

25:                                               ; preds = %17
  %26 = load ptr, ptr %4, align 8, !tbaa !5
  %27 = load i32, ptr %6, align 4, !tbaa !10
  %28 = sext i32 %27 to i64
  %29 = getelementptr inbounds i8, ptr %26, i64 %28
  %30 = load i8, ptr %29, align 1, !tbaa !12
  %31 = sext i8 %30 to i32
  %32 = icmp sle i32 %31, 122
  br i1 %32, label %33, label %34

33:                                               ; preds = %25
  br label %52

34:                                               ; preds = %25, %17
  %35 = load ptr, ptr %4, align 8, !tbaa !5
  %36 = load i32, ptr %6, align 4, !tbaa !10
  %37 = sext i32 %36 to i64
  %38 = getelementptr inbounds i8, ptr %35, i64 %37
  %39 = load i8, ptr %38, align 1, !tbaa !12
  %40 = sext i8 %39 to i32
  %41 = icmp sge i32 %40, 48
  br i1 %41, label %42, label %51

42:                                               ; preds = %34
  %43 = load ptr, ptr %4, align 8, !tbaa !5
  %44 = load i32, ptr %6, align 4, !tbaa !10
  %45 = sext i32 %44 to i64
  %46 = getelementptr inbounds i8, ptr %43, i64 %45
  %47 = load i8, ptr %46, align 1, !tbaa !12
  %48 = sext i8 %47 to i32
  %49 = icmp sle i32 %48, 57
  br i1 %49, label %50, label %51

50:                                               ; preds = %42
  br label %52

51:                                               ; preds = %42, %34
  store i32 -1, ptr %3, align 4
  store i32 1, ptr %7, align 4
  br label %55

52:                                               ; preds = %50, %33
  %53 = load i32, ptr %6, align 4, !tbaa !10
  %54 = add nsw i32 %53, 1
  store i32 %54, ptr %6, align 4, !tbaa !10
  br label %12, !llvm.loop !112

55:                                               ; preds = %51, %16
  call void @llvm.lifetime.end.p0(i64 4, ptr %6) #14
  %56 = load i32, ptr %7, align 4
  switch i32 %56, label %60 [
    i32 2, label %57
    i32 1, label %58
  ]

57:                                               ; preds = %55
  store i32 0, ptr %3, align 4
  br label %58

58:                                               ; preds = %57, %55, %10
  %59 = load i32, ptr %3, align 4
  ret i32 %59

60:                                               ; preds = %55
  unreachable
}