; Function Attrs: nofree norecurse nosync nounwind memory(argmem: read) uwtable
define dso_local range(i32 -1, 1) i32 @verifyClusterNodeId(ptr noundef readonly captures(none) %0, i32 noundef %1) local_unnamed_addr #8 {
  %.not = icmp eq i32 %1, 40
  br i1 %.not, label %.preheader, label %8

.preheader:                                       ; preds = %2, %.preheader
  %indvars.iv = phi i64 [ %indvars.iv.next, %.preheader ], [ 0, %2 ]
  %3 = getelementptr inbounds nuw i8, ptr %0, i64 %indvars.iv
  %4 = load i8, ptr %3, align 1, !tbaa !5
  %5 = add i8 %4, -123
  %or.cond = icmp ult i8 %5, -26
  %6 = add i8 %4, -58
  %or.cond18 = icmp ult i8 %6, -10
  %or.cond19.not = and i1 %or.cond, %or.cond18
  %indvars.iv.next = add nuw nsw i64 %indvars.iv, 1
  %exitcond.not = icmp eq i64 %indvars.iv.next, 40
  %or.cond22 = select i1 %or.cond19.not, i1 true, i1 %exitcond.not
  br i1 %or.cond22, label %7, label %.preheader, !llvm.loop !96

7:                                                ; preds = %.preheader
  %spec.select = sext i1 %or.cond19.not to i32
  br label %8

8:                                                ; preds = %7, %2
  %.014 = phi i32 [ -1, %2 ], [ %spec.select, %7 ]
  ret i32 %.014
}